; Function Attrs: nounwind sspstrong uwtable
define dso_local noundef i64 @rb_io_buffer_free(i64 noundef returned %0) #0 {
  %2 = tail call ptr @rb_check_typeddata(i64 noundef %0, ptr noundef nonnull @rb_io_buffer_type) #25
  %3 = getelementptr inbounds nuw i8, ptr %2, i64 16
  %4 = load i32, ptr %3, align 8, !tbaa !15
  %5 = and i32 %4, 32
  %.not = icmp eq i32 %5, 0
  br i1 %.not, label %8, label %6

6:                                                ; preds = %1
  %7 = load i64, ptr @rb_eIOBufferLockedError, align 8, !tbaa !22
  tail call void (i64, ptr, ...) @rb_raise(i64 noundef %7, ptr noundef nonnull @.str.16) #26
  unreachable

8:                                                ; preds = %1
  %9 = load ptr, ptr %2, align 8, !tbaa !14
  %.not.i = icmp eq ptr %9, null
  br i1 %.not.i, label %io_buffer_free.exit, label %10

10:                                               ; preds = %8
  %11 = and i32 %4, 2
  %.not10.i = icmp eq i32 %11, 0
  br i1 %.not10.i, label %13, label %12

12:                                               ; preds = %10
  tail call void @free(ptr noundef nonnull %9) #25
  %.pre.i = load i32, ptr %3, align 8, !tbaa !15
  br label %13

13:                                               ; preds = %12, %10
  %14 = phi i32 [ %.pre.i, %12 ], [ %4, %10 ]
  %15 = and i32 %14, 4
  %.not11.i = icmp eq i32 %15, 0
  br i1 %.not11.i, label %21, label %16

16:                                               ; preds = %13
  %17 = load ptr, ptr %2, align 8, !tbaa !14
  %18 = getelementptr inbounds nuw i8, ptr %2, i64 8
  %19 = load i64, ptr %18, align 8, !tbaa !16
  %20 = tail call i32 @munmap(ptr noundef %17, i64 noundef %19) #25
  br label %21

21:                                               ; preds = %16, %13
  %22 = getelementptr inbounds nuw i8, ptr %2, i64 24
  tail call void @llvm.memset.p0.i64(ptr noundef nonnull align 8 dereferenceable(20) %2, i8 0, i64 20, i1 false)
  store i64 4, ptr %22, align 8, !tbaa !7
  br label %io_buffer_free.exit

io_buffer_free.exit:                              ; preds = %8, %21
  ret i64 %0
}